target datalayout = "e-m:e-p270:32:32-p271:32:32-p272:64:64-i64:64-i128:128-f80:128-n8:16:32:64-S128"
target triple = "x86_64-pc-linux-gnu"

%"class.cv::utils::trace::details::Region" = type <{ ptr, i32, [4 x i8] }>

; Function Attrs: mustprogress uwtable
define noundef zeroext i1 @_ZN2cv12VideoCapture4readERKNS_12_OutputArrayE(ptr noundef nonnull align 8 dereferenceable(41) %0, ptr noundef nonnull align 8 dereferenceable(24) %1) unnamed_addr #4 align 2 personality ptr @__gxx_personality_v0 {
  %3 = alloca ptr, align 8
  %4 = alloca ptr, align 8
  %5 = alloca %"class.cv::utils::trace::details::Region", align 8
  %6 = alloca ptr, align 8
  %7 = alloca i32, align 4
  store ptr %0, ptr %3, align 8, !tbaa !18
  store ptr %1, ptr %4, align 8, !tbaa !113
  %8 = load ptr, ptr %3, align 8
  call void @llvm.lifetime.start.p0(i64 16, ptr %5) #3
  call void @_ZN2cv5utils5trace7details6RegionC1ERKNS3_21LocationStaticStorageE(ptr noundef nonnull align 8 dereferenceable(12) %5, ptr noundef nonnull align 8 dereferenceable(32) @_ZZN2cv12VideoCapture4readERKNS_12_OutputArrayEE25__cv_trace_location_fn556)
  %9 = load ptr, ptr %8, align 8, !tbaa !20
  %10 = getelementptr inbounds ptr, ptr %9, i64 9
  %11 = load ptr, ptr %10, align 8
  %12 = invoke noundef zeroext i1 %11(ptr noundef nonnull align 8 dereferenceable(41) %8)
          to label %13 unwind label %21

13:                                               ; preds = %2
  br i1 %12, label %14, label %25

14:                                               ; preds = %13
  %15 = load ptr, ptr %4, align 8, !tbaa !113
  %16 = load ptr, ptr %8, align 8, !tbaa !20
  %17 = getelementptr inbounds ptr, ptr %16, i64 10
  %18 = load ptr, ptr %17, align 8
  %19 = invoke noundef zeroext i1 %18(ptr noundef nonnull align 8 dereferenceable(41) %8, ptr noundef nonnull align 8 dereferenceable(24) %15, i32 noundef 0)
          to label %20 unwind label %21

20:                                               ; preds = %14
  br label %28

21:                                               ; preds = %28, %25, %14, %2
  %22 = landingpad { ptr, i32 }
          cleanup
  %23 = extractvalue { ptr, i32 } %22, 0
  store ptr %23, ptr %6, align 8
  %24 = extractvalue { ptr, i32 } %22, 1
  store i32 %24, ptr %7, align 4
  call void @_ZN2cv5utils5trace7details6RegionD2Ev(ptr noundef nonnull align 8 dereferenceable(12) %5) #3
  call void @llvm.lifetime.end.p0(i64 16, ptr %5) #3
  br label %33

25:                                               ; preds = %13
  %26 = load ptr, ptr %4, align 8, !tbaa !113
  invoke void @_ZNK2cv12_OutputArray7releaseEv(ptr noundef nonnull align 8 dereferenceable(24) %26)
          to label %27 unwind label %21

27:                                               ; preds = %25
  br label %28

28:                                               ; preds = %27, %20
  %29 = load ptr, ptr %4, align 8, !tbaa !113
  %30 = invoke noundef zeroext i1 @_ZNK2cv11_InputArray5emptyEv(ptr noundef nonnull align 8 dereferenceable(24) %29)
          to label %31 unwind label %21

31:                                               ; preds = %28
  %32 = xor i1 %30, true
  call void @_ZN2cv5utils5trace7details6RegionD2Ev(ptr noundef nonnull align 8 dereferenceable(12) %5) #3
  call void @llvm.lifetime.end.p0(i64 16, ptr %5) #3
  ret i1 %32

33:                                               ; preds = %21
  %34 = load ptr, ptr %6, align 8
  %35 = load i32, ptr %7, align 4
  %36 = insertvalue { ptr, i32 } poison, ptr %34, 0
  %37 = insertvalue { ptr, i32 } %36, i32 %35, 1
  resume { ptr, i32 } %37
}